; Function Attrs: mustprogress uwtable
define internal noundef zeroext i1 @_ZN17grpc_event_engine12experimental12_GLOBAL__N_119EndpointCanTrackErrEP13grpc_endpoint(ptr noundef readonly captures(none) %0) #3 {
  %2 = getelementptr inbounds nuw i8, ptr %0, i64 8
  %3 = load ptr, ptr %2, align 8, !tbaa !61
  %.val = load ptr, ptr %3, align 8, !tbaa !3
  %4 = icmp eq ptr %.val, null
  br i1 %4, label %_ZN17grpc_event_engine12experimental12_GLOBAL__N_126EventEngineEndpointWrapper14CanTrackErrorsEv.exit, label %_ZN17grpc_event_engine12experimental14QueryExtensionINS0_31EndpointCanTrackErrorsExtensionEEEPT_PNS0_11EventEngine8EndpointE.exit.i

_ZN17grpc_event_engine12experimental14QueryExtensionINS0_31EndpointCanTrackErrorsExtensionEEEPT_PNS0_11EventEngine8EndpointE.exit.i: ; preds = %1
  %5 = load ptr, ptr %.val, align 8, !tbaa !18
  %6 = load ptr, ptr %5, align 8
  %7 = tail call noundef ptr %6(ptr noundef nonnull align 8 dereferenceable(8) %.val, i64 47, ptr nonnull @.str.16)
  %.not.i = icmp eq ptr %7, null
  br i1 %.not.i, label %_ZN17grpc_event_engine12experimental12_GLOBAL__N_126EventEngineEndpointWrapper14CanTrackErrorsEv.exit, label %8

8:                                                ; preds = %_ZN17grpc_event_engine12experimental14QueryExtensionINS0_31EndpointCanTrackErrorsExtensionEEEPT_PNS0_11EventEngine8EndpointE.exit.i
  %9 = load ptr, ptr %7, align 8, !tbaa !18
  %10 = getelementptr inbounds nuw i8, ptr %9, i64 16
  %11 = load ptr, ptr %10, align 8
  %12 = tail call noundef zeroext i1 %11(ptr noundef nonnull align 8 dereferenceable(8) %7)
  br label %_ZN17grpc_event_engine12experimental12_GLOBAL__N_126EventEngineEndpointWrapper14CanTrackErrorsEv.exit

_ZN17grpc_event_engine12experimental12_GLOBAL__N_126EventEngineEndpointWrapper14CanTrackErrorsEv.exit: ; preds = %1, %_ZN17grpc_event_engine12experimental14QueryExtensionINS0_31EndpointCanTrackErrorsExtensionEEEPT_PNS0_11EventEngine8EndpointE.exit.i, %8
  %.0.i = phi i1 [ %12, %8 ], [ false, %_ZN17grpc_event_engine12experimental14QueryExtensionINS0_31EndpointCanTrackErrorsExtensionEEEPT_PNS0_11EventEngine8EndpointE.exit.i ], [ false, %1 ]
  ret i1 %.0.i
}